; Function Attrs: mustprogress uwtable
define void @_ZN4cvc56parser11ParserState14mkCharConstantERKNSt7__cxx1112basic_stringIcSt11char_traitsIcESaIcEEE(ptr noalias sret(%"class.cvc5::Term") align 8 %agg.result, ptr nocapture noundef nonnull readonly align 8 dereferenceable(168) %this, ptr noundef nonnull align 8 dereferenceable(32) %s) local_unnamed_addr #3 align 2 personality ptr @__gxx_personality_v0 {
entry:
  %__endptr.i.i = alloca ptr, align 8
  %ref.tmp = alloca %"class.std::__cxx11::basic_string.153", align 8
  %ref.tmp2 = alloca %"class.std::allocator.154", align 1
  %call.i = tail call noundef ptr @_ZNKSt7__cxx1112basic_stringIcSt11char_traitsIcESaIcEE5c_strEv(ptr noundef nonnull align 8 dereferenceable(32) %s) #23
  call void @llvm.lifetime.start.p0(i64 8, ptr nonnull %__endptr.i.i)
  %call.i.i.i = tail call ptr @__errno_location() #29
  %0 = load i32, ptr %call.i.i.i, align 4
  store i32 0, ptr %call.i.i.i, align 4
  %call.i.i = call noundef i64 @strtoul(ptr noundef %call.i, ptr noundef nonnull %__endptr.i.i, i32 noundef 16)
  %1 = load ptr, ptr %__endptr.i.i, align 8
  %cmp.i.i = icmp eq ptr %1, %call.i
  br i1 %cmp.i.i, label %if.then.i.i, label %if.else.i.i

if.then.i.i:                                      ; preds = %entry
  invoke void @_ZSt24__throw_invalid_argumentPKc(ptr noundef nonnull @.str.56) #26
          to label %invoke.cont1.i.i unwind label %lpad.i.i

invoke.cont1.i.i:                                 ; preds = %if.then.i.i
  unreachable

lpad.i.i:                                         ; preds = %if.then6.i.i, %if.then.i.i
  %2 = landingpad { ptr, i32 }
          cleanup
  %3 = load i32, ptr %call.i.i.i, align 4
  %cmp.i.i.i = icmp eq i32 %3, 0
  br i1 %cmp.i.i.i, label %if.then.i.i.i, label %common.resume

if.then.i.i.i:                                    ; preds = %lpad.i.i
  store i32 %0, ptr %call.i.i.i, align 4
  br label %common.resume

common.resume:                                    ; preds = %lpad.i.i, %if.then.i.i.i, %ehcleanup
  %common.resume.op = phi { ptr, i32 } [ %.pn, %ehcleanup ], [ %2, %if.then.i.i.i ], [ %2, %lpad.i.i ]
  resume { ptr, i32 } %common.resume.op

if.else.i.i:                                      ; preds = %entry
  %4 = load i32, ptr %call.i.i.i, align 4
  switch i32 %4, label %_ZNSt7__cxx115stoulERKNS_12basic_stringIcSt11char_traitsIcESaIcEEEPmi.exit [
    i32 34, label %if.then6.i.i
    i32 0, label %if.then.i9.i.i
  ]

if.then6.i.i:                                     ; preds = %if.else.i.i
  invoke void @_ZSt20__throw_out_of_rangePKc(ptr noundef nonnull @.str.56) #26
          to label %invoke.cont7.i.i unwind label %lpad.i.i

invoke.cont7.i.i:                                 ; preds = %if.then6.i.i
  unreachable

if.then.i9.i.i:                                   ; preds = %if.else.i.i
  store i32 %0, ptr %call.i.i.i, align 4
  br label %_ZNSt7__cxx115stoulERKNS_12basic_stringIcSt11char_traitsIcESaIcEEEPmi.exit

_ZNSt7__cxx115stoulERKNS_12basic_stringIcSt11char_traitsIcESaIcEEEPmi.exit: ; preds = %if.else.i.i, %if.then.i9.i.i
  call void @llvm.lifetime.end.p0(i64 8, ptr nonnull %__endptr.i.i)
  %conv = trunc i64 %call.i.i to i32
  %d_solver = getelementptr inbounds i8, ptr %this, i64 8
  %5 = load ptr, ptr %d_solver, align 8
  call void @_ZNSaIwEC1Ev(ptr noundef nonnull align 1 dereferenceable(1) %ref.tmp2) #23
  %call.i23 = invoke noundef ptr @_ZNSt7__cxx1112basic_stringIwSt11char_traitsIwESaIwEE13_M_local_dataEv(ptr noundef nonnull align 8 dereferenceable(32) %ref.tmp)
          to label %call.i2.noexc unwind label %lpad

call.i2.noexc:                                    ; preds = %_ZNSt7__cxx115stoulERKNS_12basic_stringIcSt11char_traitsIcESaIcEEEPmi.exit
  invoke void @_ZNSt7__cxx1112basic_stringIwSt11char_traitsIwESaIwEE12_Alloc_hiderC1EPwRKS3_(ptr noundef nonnull align 8 dereferenceable(8) %ref.tmp, ptr noundef %call.i23, ptr noundef nonnull align 1 dereferenceable(1) %ref.tmp2)
          to label %.noexc unwind label %lpad

.noexc:                                           ; preds = %call.i2.noexc
  invoke void @_ZNSt7__cxx1112basic_stringIwSt11char_traitsIwESaIwEE12_M_constructEmw(ptr noundef nonnull align 8 dereferenceable(32) %ref.tmp, i64 noundef 1, i32 noundef signext %conv)
          to label %invoke.cont unwind label %lpad.i

lpad.i:                                           ; preds = %.noexc
  %6 = landingpad { ptr, i32 }
          cleanup
  call void @_ZNSaIwED2Ev(ptr noundef nonnull align 1 dereferenceable(1) %ref.tmp) #23
  br label %ehcleanup

invoke.cont:                                      ; preds = %.noexc
  invoke void @_ZNK4cvc56Solver8mkStringERKNSt7__cxx1112basic_stringIwSt11char_traitsIwESaIwEEE(ptr sret(%"class.cvc5::Term") align 8 %agg.result, ptr noundef nonnull align 8 dereferenceable(40) %5, ptr noundef nonnull align 8 dereferenceable(32) %ref.tmp)
          to label %invoke.cont4 unwind label %lpad3

invoke.cont4:                                     ; preds = %invoke.cont
  call void @_ZNSt7__cxx1112basic_stringIwSt11char_traitsIwESaIwEED1Ev(ptr noundef nonnull align 8 dereferenceable(32) %ref.tmp) #23
  call void @_ZNSaIwED1Ev(ptr noundef nonnull align 1 dereferenceable(1) %ref.tmp2) #23
  ret void

lpad:                                             ; preds = %call.i2.noexc, %_ZNSt7__cxx115stoulERKNS_12basic_stringIcSt11char_traitsIcESaIcEEEPmi.exit
  %7 = landingpad { ptr, i32 }
          cleanup
  br label %ehcleanup

lpad3:                                            ; preds = %invoke.cont
  %8 = landingpad { ptr, i32 }
          cleanup
  call void @_ZNSt7__cxx1112basic_stringIwSt11char_traitsIwESaIwEED1Ev(ptr noundef nonnull align 8 dereferenceable(32) %ref.tmp) #23
  br label %ehcleanup

ehcleanup:                                        ; preds = %lpad, %lpad.i, %lpad3
  %.pn = phi { ptr, i32 } [ %8, %lpad3 ], [ %7, %lpad ], [ %6, %lpad.i ]
  call void @_ZNSaIwED1Ev(ptr noundef nonnull align 1 dereferenceable(1) %ref.tmp2) #23
  br label %common.resume
}